; ModuleID = '24/2429.c'
source_filename = "24/2429.c"
target datalayout = "e-m:e-p270:32:32-p271:32:32-p272:64:64-i64:64-f80:128-n8:16:32:64-S128"
target triple = "x86_64-pc-linux-gnu"

@.str = private unnamed_addr constant [3 x i8] c"%c\00", align 1
@.str.1 = private unnamed_addr constant [2 x i8] c"\0A\00", align 1

; Function Attrs: noinline nounwind uwtable
define dso_local i32 @main() #0 {
  %1 = alloca i32, align 4
  %2 = alloca [200 x [20 x i8]], align 16
  %3 = alloca [1000 x i8], align 16
  %4 = alloca i32, align 4
  %5 = alloca i32, align 4
  %6 = alloca i32, align 4
  %7 = alloca [200 x i32], align 16
  %8 = alloca i32, align 4
  %9 = alloca i32, align 4
  %10 = alloca i32, align 4
  %11 = alloca i32, align 4
  %12 = alloca i32, align 4
  store i32 0, i32* %1, align 4
  store i32 1, i32* %5, align 4
  %13 = getelementptr inbounds [1000 x i8], [1000 x i8]* %3, i64 0, i64 0
  %14 = call i32 (i8*, ...) bitcast (i32 (...)* @gets to i32 (i8*, ...)*)(i8* %13)
  %15 = getelementptr inbounds [1000 x i8], [1000 x i8]* %3, i64 0, i64 0
  %16 = call i64 @strlen(i8* %15) #3
  %17 = trunc i64 %16 to i32
  store i32 %17, i32* %8, align 4
  store i32 1, i32* %4, align 4
  store i32 1, i32* %6, align 4
  store i32 0, i32* %5, align 4
  br label %18

18:                                               ; preds = %94, %0
  %19 = load i32, i32* %5, align 4
  %20 = load i32, i32* %8, align 4
  %21 = sub nsw i32 %20, 1
  %22 = icmp sle i32 %19, %21
  br i1 %22, label %23, label %97

23:                                               ; preds = %18
  %24 = load i32, i32* %5, align 4
  %25 = sext i32 %24 to i64
  %26 = getelementptr inbounds [1000 x i8], [1000 x i8]* %3, i64 0, i64 %25
  %27 = load i8, i8* %26, align 1
  %28 = sext i8 %27 to i32
  %29 = icmp ne i32 %28, 32
  br i1 %29, label %30, label %50

30:                                               ; preds = %23
  %31 = load i32, i32* %5, align 4
  %32 = sext i32 %31 to i64
  %33 = getelementptr inbounds [1000 x i8], [1000 x i8]* %3, i64 0, i64 %32
  %34 = load i8, i8* %33, align 1
  %35 = sext i8 %34 to i32
  %36 = icmp ne i32 %35, 44
  br i1 %36, label %37, label %50

37:                                               ; preds = %30
  %38 = load i32, i32* %5, align 4
  %39 = sext i32 %38 to i64
  %40 = getelementptr inbounds [1000 x i8], [1000 x i8]* %3, i64 0, i64 %39
  %41 = load i8, i8* %40, align 1
  %42 = load i32, i32* %4, align 4
  %43 = sext i32 %42 to i64
  %44 = getelementptr inbounds [200 x [20 x i8]], [200 x [20 x i8]]* %2, i64 0, i64 %43
  %45 = load i32, i32* %6, align 4
  %46 = sext i32 %45 to i64
  %47 = getelementptr inbounds [20 x i8], [20 x i8]* %44, i64 0, i64 %46
  store i8 %41, i8* %47, align 1
  %48 = load i32, i32* %6, align 4
  %49 = add nsw i32 %48, 1
  store i32 %49, i32* %6, align 4
  br label %50

50:                                               ; preds = %37, %30, %23
  %51 = load i32, i32* %5, align 4
  %52 = sext i32 %51 to i64
  %53 = getelementptr inbounds [1000 x i8], [1000 x i8]* %3, i64 0, i64 %52
  %54 = load i8, i8* %53, align 1
  %55 = sext i8 %54 to i32
  %56 = icmp eq i32 %55, 32
  br i1 %56, label %64, label %57

57:                                               ; preds = %50
  %58 = load i32, i32* %5, align 4
  %59 = sext i32 %58 to i64
  %60 = getelementptr inbounds [1000 x i8], [1000 x i8]* %3, i64 0, i64 %59
  %61 = load i8, i8* %60, align 1
  %62 = sext i8 %61 to i32
  %63 = icmp eq i32 %62, 44
  br i1 %63, label %64, label %72

64:                                               ; preds = %57, %50
  %65 = load i32, i32* %6, align 4
  %66 = sub nsw i32 %65, 1
  %67 = load i32, i32* %4, align 4
  %68 = sext i32 %67 to i64
  %69 = getelementptr inbounds [200 x i32], [200 x i32]* %7, i64 0, i64 %68
  store i32 %66, i32* %69, align 4
  %70 = load i32, i32* %4, align 4
  %71 = add nsw i32 %70, 1
  store i32 %71, i32* %4, align 4
  store i32 1, i32* %6, align 4
  br label %72

72:                                               ; preds = %64, %57
  %73 = load i32, i32* %5, align 4
  %74 = sext i32 %73 to i64
  %75 = getelementptr inbounds [1000 x i8], [1000 x i8]* %3, i64 0, i64 %74
  %76 = load i8, i8* %75, align 1
  %77 = sext i8 %76 to i32
  %78 = icmp eq i32 %77, 44
  br i1 %78, label %79, label %82

79:                                               ; preds = %72
  %80 = load i32, i32* %5, align 4
  %81 = add nsw i32 %80, 1
  store i32 %81, i32* %5, align 4
  br label %82

82:                                               ; preds = %79, %72
  %83 = load i32, i32* %5, align 4
  %84 = load i32, i32* %8, align 4
  %85 = sub nsw i32 %84, 1
  %86 = icmp eq i32 %83, %85
  br i1 %86, label %87, label %93

87:                                               ; preds = %82
  %88 = load i32, i32* %6, align 4
  %89 = sub nsw i32 %88, 1
  %90 = load i32, i32* %4, align 4
  %91 = sext i32 %90 to i64
  %92 = getelementptr inbounds [200 x i32], [200 x i32]* %7, i64 0, i64 %91
  store i32 %89, i32* %92, align 4
  br label %93

93:                                               ; preds = %87, %82
  br label %94

94:                                               ; preds = %93
  %95 = load i32, i32* %5, align 4
  %96 = add nsw i32 %95, 1
  store i32 %96, i32* %5, align 4
  br label %18

97:                                               ; preds = %18
  store i32 0, i32* %9, align 4
  store i32 50000, i32* %10, align 4
  store i32 1, i32* %5, align 4
  br label %98

98:                                               ; preds = %129, %97
  %99 = load i32, i32* %5, align 4
  %100 = load i32, i32* %4, align 4
  %101 = icmp sle i32 %99, %100
  br i1 %101, label %102, label %132

102:                                              ; preds = %98
  %103 = load i32, i32* %5, align 4
  %104 = sext i32 %103 to i64
  %105 = getelementptr inbounds [200 x i32], [200 x i32]* %7, i64 0, i64 %104
  %106 = load i32, i32* %105, align 4
  %107 = load i32, i32* %9, align 4
  %108 = icmp sgt i32 %106, %107
  br i1 %108, label %109, label %115

109:                                              ; preds = %102
  %110 = load i32, i32* %5, align 4
  %111 = sext i32 %110 to i64
  %112 = getelementptr inbounds [200 x i32], [200 x i32]* %7, i64 0, i64 %111
  %113 = load i32, i32* %112, align 4
  store i32 %113, i32* %9, align 4
  %114 = load i32, i32* %5, align 4
  store i32 %114, i32* %11, align 4
  br label %115

115:                                              ; preds = %109, %102
  %116 = load i32, i32* %5, align 4
  %117 = sext i32 %116 to i64
  %118 = getelementptr inbounds [200 x i32], [200 x i32]* %7, i64 0, i64 %117
  %119 = load i32, i32* %118, align 4
  %120 = load i32, i32* %10, align 4
  %121 = icmp slt i32 %119, %120
  br i1 %121, label %122, label %128

122:                                              ; preds = %115
  %123 = load i32, i32* %5, align 4
  %124 = sext i32 %123 to i64
  %125 = getelementptr inbounds [200 x i32], [200 x i32]* %7, i64 0, i64 %124
  %126 = load i32, i32* %125, align 4
  store i32 %126, i32* %10, align 4
  %127 = load i32, i32* %5, align 4
  store i32 %127, i32* %12, align 4
  br label %128

128:                                              ; preds = %122, %115
  br label %129

129:                                              ; preds = %128
  %130 = load i32, i32* %5, align 4
  %131 = add nsw i32 %130, 1
  store i32 %131, i32* %5, align 4
  br label %98

132:                                              ; preds = %98
  %133 = load i32, i32* %9, align 4
  %134 = load i32, i32* %10, align 4
  %135 = icmp eq i32 %133, %134
  br i1 %135, label %136, label %172

136:                                              ; preds = %132
  store i32 1, i32* %5, align 4
  br label %137

137:                                              ; preds = %150, %136
  %138 = load i32, i32* %5, align 4
  %139 = getelementptr inbounds [200 x i32], [200 x i32]* %7, i64 0, i64 1
  %140 = load i32, i32* %139, align 4
  %141 = icmp sle i32 %138, %140
  br i1 %141, label %142, label %153

142:                                              ; preds = %137
  %143 = getelementptr inbounds [200 x [20 x i8]], [200 x [20 x i8]]* %2, i64 0, i64 1
  %144 = load i32, i32* %5, align 4
  %145 = sext i32 %144 to i64
  %146 = getelementptr inbounds [20 x i8], [20 x i8]* %143, i64 0, i64 %145
  %147 = load i8, i8* %146, align 1
  %148 = sext i8 %147 to i32
  %149 = call i32 (i8*, ...) @printf(i8* getelementptr inbounds ([3 x i8], [3 x i8]* @.str, i64 0, i64 0), i32 %148)
  br label %150

150:                                              ; preds = %142
  %151 = load i32, i32* %5, align 4
  %152 = add nsw i32 %151, 1
  store i32 %152, i32* %5, align 4
  br label %137

153:                                              ; preds = %137
  %154 = call i32 (i8*, ...) @printf(i8* getelementptr inbounds ([2 x i8], [2 x i8]* @.str.1, i64 0, i64 0))
  store i32 1, i32* %5, align 4
  br label %155

155:                                              ; preds = %168, %153
  %156 = load i32, i32* %5, align 4
  %157 = getelementptr inbounds [200 x i32], [200 x i32]* %7, i64 0, i64 1
  %158 = load i32, i32* %157, align 4
  %159 = icmp sle i32 %156, %158
  br i1 %159, label %160, label %171

160:                                              ; preds = %155
  %161 = getelementptr inbounds [200 x [20 x i8]], [200 x [20 x i8]]* %2, i64 0, i64 1
  %162 = load i32, i32* %5, align 4
  %163 = sext i32 %162 to i64
  %164 = getelementptr inbounds [20 x i8], [20 x i8]* %161, i64 0, i64 %163
  %165 = load i8, i8* %164, align 1
  %166 = sext i8 %165 to i32
  %167 = call i32 (i8*, ...) @printf(i8* getelementptr inbounds ([3 x i8], [3 x i8]* @.str, i64 0, i64 0), i32 %166)
  br label %168

168:                                              ; preds = %160
  %169 = load i32, i32* %5, align 4
  %170 = add nsw i32 %169, 1
  store i32 %170, i32* %5, align 4
  br label %155

171:                                              ; preds = %155
  br label %216

172:                                              ; preds = %132
  store i32 1, i32* %5, align 4
  br label %173

173:                                              ; preds = %190, %172
  %174 = load i32, i32* %5, align 4
  %175 = load i32, i32* %11, align 4
  %176 = sext i32 %175 to i64
  %177 = getelementptr inbounds [200 x i32], [200 x i32]* %7, i64 0, i64 %176
  %178 = load i32, i32* %177, align 4
  %179 = icmp sle i32 %174, %178
  br i1 %179, label %180, label %193

180:                                              ; preds = %173
  %181 = load i32, i32* %11, align 4
  %182 = sext i32 %181 to i64
  %183 = getelementptr inbounds [200 x [20 x i8]], [200 x [20 x i8]]* %2, i64 0, i64 %182
  %184 = load i32, i32* %5, align 4
  %185 = sext i32 %184 to i64
  %186 = getelementptr inbounds [20 x i8], [20 x i8]* %183, i64 0, i64 %185
  %187 = load i8, i8* %186, align 1
  %188 = sext i8 %187 to i32
  %189 = call i32 (i8*, ...) @printf(i8* getelementptr inbounds ([3 x i8], [3 x i8]* @.str, i64 0, i64 0), i32 %188)
  br label %190

190:                                              ; preds = %180
  %191 = load i32, i32* %5, align 4
  %192 = add nsw i32 %191, 1
  store i32 %192, i32* %5, align 4
  br label %173

193:                                              ; preds = %173
  %194 = call i32 (i8*, ...) @printf(i8* getelementptr inbounds ([2 x i8], [2 x i8]* @.str.1, i64 0, i64 0))
  store i32 1, i32* %5, align 4
  br label %195

195:                                              ; preds = %212, %193
  %196 = load i32, i32* %5, align 4
  %197 = load i32, i32* %12, align 4
  %198 = sext i32 %197 to i64
  %199 = getelementptr inbounds [200 x i32], [200 x i32]* %7, i64 0, i64 %198
  %200 = load i32, i32* %199, align 4
  %201 = icmp sle i32 %196, %200
  br i1 %201, label %202, label %215

202:                                              ; preds = %195
  %203 = load i32, i32* %12, align 4
  %204 = sext i32 %203 to i64
  %205 = getelementptr inbounds [200 x [20 x i8]], [200 x [20 x i8]]* %2, i64 0, i64 %204
  %206 = load i32, i32* %5, align 4
  %207 = sext i32 %206 to i64
  %208 = getelementptr inbounds [20 x i8], [20 x i8]* %205, i64 0, i64 %207
  %209 = load i8, i8* %208, align 1
  %210 = sext i8 %209 to i32
  %211 = call i32 (i8*, ...) @printf(i8* getelementptr inbounds ([3 x i8], [3 x i8]* @.str, i64 0, i64 0), i32 %210)
  br label %212

212:                                              ; preds = %202
  %213 = load i32, i32* %5, align 4
  %214 = add nsw i32 %213, 1
  store i32 %214, i32* %5, align 4
  br label %195

215:                                              ; preds = %195
  br label %216

216:                                              ; preds = %215, %171
  %217 = load i32, i32* %1, align 4
  ret i32 %217
}

declare dso_local i32 @gets(...) #1

; Function Attrs: nounwind readonly
declare dso_local i64 @strlen(i8*) #2

declare dso_local i32 @printf(i8*, ...) #1


!llvm.module.flags = !{!0}
!llvm.ident = !{!1}

!0 = !{i32 1, !"wchar_size", i32 4}
!1 = !{!"clang version 10.0.0-4ubuntu1 "}
